target datalayout = "e-m:e-p270:32:32-p271:32:32-p272:64:64-i64:64-i128:128-f80:128-n8:16:32:64-S128"
target triple = "x86_64-pc-linux-gnu"

@H5VL_init_g = external global i8, align 1
@H5_libterm_g = external global i8, align 1
@H5VL_opt_ops_g = internal global [13 x ptr] zeroinitializer, align 16

; Function Attrs: nounwind uwtable
define i32 @H5VL__term_opt_operation() #0 {
  %1 = alloca i64, align 8
  call void @llvm.lifetime.start.p0(i64 8, ptr %1) #4
  %2 = load i8, ptr @H5VL_init_g, align 1, !tbaa !3, !range !7, !noundef !8
  %3 = trunc i8 %2 to i1
  br i1 %3, label %8, label %4

4:                                                ; preds = %0
  %5 = load i8, ptr @H5_libterm_g, align 1, !tbaa !3, !range !7, !noundef !8
  %6 = trunc i8 %5 to i1
  %7 = xor i1 %6, true
  br label %8

8:                                                ; preds = %4, %0
  %9 = phi i1 [ true, %0 ], [ %7, %4 ]
  %10 = xor i1 %9, true
  %11 = xor i1 %10, true
  %12 = zext i1 %11 to i32
  %13 = sext i32 %12 to i64
  %14 = call i64 @llvm.expect.i64(i64 %13, i64 1)
  %15 = icmp ne i64 %14, 0
  br i1 %15, label %16, label %37

16:                                               ; preds = %8
  store i64 0, ptr %1, align 8, !tbaa !9
  br label %17

17:                                               ; preds = %33, %16
  %18 = load i64, ptr %1, align 8, !tbaa !9
  %19 = icmp ult i64 %18, 13
  br i1 %19, label %20, label %36

20:                                               ; preds = %17
  %21 = load i64, ptr %1, align 8, !tbaa !9
  %22 = getelementptr inbounds nuw [13 x ptr], ptr @H5VL_opt_ops_g, i64 0, i64 %21
  %23 = load ptr, ptr %22, align 8, !tbaa !11
  %24 = icmp ne ptr %23, null
  br i1 %24, label %25, label %32

25:                                               ; preds = %20
  %26 = load i64, ptr %1, align 8, !tbaa !9
  %27 = getelementptr inbounds nuw [13 x ptr], ptr @H5VL_opt_ops_g, i64 0, i64 %26
  %28 = load ptr, ptr %27, align 8, !tbaa !11
  %29 = call i32 @H5SL_destroy(ptr noundef %28, ptr noundef @H5VL__term_opt_operation_cb, ptr noundef null)
  %30 = load i64, ptr %1, align 8, !tbaa !9
  %31 = getelementptr inbounds nuw [13 x ptr], ptr @H5VL_opt_ops_g, i64 0, i64 %30
  store ptr null, ptr %31, align 8, !tbaa !11
  br label %32

32:                                               ; preds = %25, %20
  br label %33

33:                                               ; preds = %32
  %34 = load i64, ptr %1, align 8, !tbaa !9
  %35 = add i64 %34, 1
  store i64 %35, ptr %1, align 8, !tbaa !9
  br label %17, !llvm.loop !14

36:                                               ; preds = %17
  br label %37

37:                                               ; preds = %36, %8
  call void @llvm.lifetime.end.p0(i64 8, ptr %1) #4
  ret i32 0
}