; Function Attrs: nounwind uwtable
define noundef i32 @H5VL__term_opt_operation() local_unnamed_addr #0 {
  %1 = load i8, ptr @H5VL_init_g, align 1, !tbaa !3, !range !7, !noundef !8
  %2 = trunc nuw i8 %1 to i1
  %3 = load i8, ptr @H5_libterm_g, align 1, !range !7
  %4 = trunc nuw i8 %3 to i1
  %5 = xor i1 %4, true
  %6 = select i1 %2, i1 true, i1 %5
  br i1 %6, label %.preheader, label %.loopexit, !prof !9

.preheader:                                       ; preds = %0, %11
  %.06 = phi i64 [ %12, %11 ], [ 0, %0 ]
  %7 = getelementptr inbounds nuw [13 x ptr], ptr @H5VL_opt_ops_g, i64 0, i64 %.06
  %8 = load ptr, ptr %7, align 8, !tbaa !10
  %.not = icmp eq ptr %8, null
  br i1 %.not, label %11, label %9

9:                                                ; preds = %.preheader
  %10 = tail call i32 @H5SL_destroy(ptr noundef nonnull %8, ptr noundef nonnull @H5VL__term_opt_operation_cb, ptr noundef null) #2
  store ptr null, ptr %7, align 8, !tbaa !10
  br label %11

11:                                               ; preds = %.preheader, %9
  %12 = add nuw nsw i64 %.06, 1
  %exitcond.not = icmp eq i64 %12, 13
  br i1 %exitcond.not, label %.loopexit, label %.preheader, !llvm.loop !13

.loopexit:                                        ; preds = %11, %0
  ret i32 0
}